target datalayout = "e-m:e-p270:32:32-p271:32:32-p272:64:64-i64:64-i128:128-f80:128-n8:16:32:64-S128"
target triple = "x86_64-pc-linux-gnu"

%struct.AppendState = type { %struct.PlanState, ptr, i32, i32, i8, ptr, i32, ptr, ptr, i32, i8, i32, ptr, ptr, i32, ptr, i64, ptr, i8, ptr, ptr, ptr }
%struct.PlanState = type { i32, ptr, ptr, ptr, ptr, ptr, ptr, ptr, ptr, ptr, ptr, ptr, ptr, ptr, ptr, ptr, ptr, ptr, i8, ptr, ptr, ptr, ptr, ptr, i8, i8, i8, i8, i8, i8, i8, i8 }
%struct.PartitionPruneState = type { ptr, ptr, ptr, ptr, i8, i8, i32, [0 x ptr] }
%struct.AsyncRequest = type { ptr, ptr, i32, i8, i8, ptr }

; Function Attrs: nounwind uwtable
define dso_local void @ExecReScanAppend(ptr noundef %0) #0 {
  %2 = alloca ptr, align 8
  %3 = alloca i32, align 4
  %4 = alloca i32, align 4
  %5 = alloca ptr, align 8
  %6 = alloca ptr, align 8
  store ptr %0, ptr %2, align 8
  call void @llvm.lifetime.start.p0(i64 4, ptr %3) #6
  %7 = load ptr, ptr %2, align 8
  %8 = getelementptr inbounds nuw %struct.AppendState, ptr %7, i32 0, i32 6
  %9 = load i32, ptr %8, align 8
  store i32 %9, ptr %3, align 4
  call void @llvm.lifetime.start.p0(i64 4, ptr %4) #6
  %10 = load ptr, ptr %2, align 8
  %11 = getelementptr inbounds nuw %struct.AppendState, ptr %10, i32 0, i32 17
  %12 = load ptr, ptr %11, align 8
  %13 = icmp ne ptr %12, null
  br i1 %13, label %14, label %38

14:                                               ; preds = %1
  %15 = load ptr, ptr %2, align 8
  %16 = getelementptr inbounds nuw %struct.AppendState, ptr %15, i32 0, i32 0
  %17 = getelementptr inbounds nuw %struct.PlanState, ptr %16, i32 0, i32 13
  %18 = load ptr, ptr %17, align 8
  %19 = load ptr, ptr %2, align 8
  %20 = getelementptr inbounds nuw %struct.AppendState, ptr %19, i32 0, i32 17
  %21 = load ptr, ptr %20, align 8
  %22 = getelementptr inbounds nuw %struct.PartitionPruneState, ptr %21, i32 0, i32 1
  %23 = load ptr, ptr %22, align 8
  %24 = call zeroext i1 @bms_overlap(ptr noundef %18, ptr noundef %23)
  br i1 %24, label %25, label %38

25:                                               ; preds = %14
  %26 = load ptr, ptr %2, align 8
  %27 = getelementptr inbounds nuw %struct.AppendState, ptr %26, i32 0, i32 18
  store i8 0, ptr %27, align 8
  %28 = load ptr, ptr %2, align 8
  %29 = getelementptr inbounds nuw %struct.AppendState, ptr %28, i32 0, i32 19
  %30 = load ptr, ptr %29, align 8
  call void @bms_free(ptr noundef %30)
  %31 = load ptr, ptr %2, align 8
  %32 = getelementptr inbounds nuw %struct.AppendState, ptr %31, i32 0, i32 19
  store ptr null, ptr %32, align 8
  %33 = load ptr, ptr %2, align 8
  %34 = getelementptr inbounds nuw %struct.AppendState, ptr %33, i32 0, i32 20
  %35 = load ptr, ptr %34, align 8
  call void @bms_free(ptr noundef %35)
  %36 = load ptr, ptr %2, align 8
  %37 = getelementptr inbounds nuw %struct.AppendState, ptr %36, i32 0, i32 20
  store ptr null, ptr %37, align 8
  br label %38

38:                                               ; preds = %25, %14, %1
  store i32 0, ptr %4, align 4
  br label %39

39:                                               ; preds = %72, %38
  %40 = load i32, ptr %4, align 4
  %41 = load ptr, ptr %2, align 8
  %42 = getelementptr inbounds nuw %struct.AppendState, ptr %41, i32 0, i32 2
  %43 = load i32, ptr %42, align 8
  %44 = icmp slt i32 %40, %43
  br i1 %44, label %45, label %75

45:                                               ; preds = %39
  call void @llvm.lifetime.start.p0(i64 8, ptr %5) #6
  %46 = load ptr, ptr %2, align 8
  %47 = getelementptr inbounds nuw %struct.AppendState, ptr %46, i32 0, i32 1
  %48 = load ptr, ptr %47, align 8
  %49 = load i32, ptr %4, align 4
  %50 = sext i32 %49 to i64
  %51 = getelementptr inbounds ptr, ptr %48, i64 %50
  %52 = load ptr, ptr %51, align 8
  store ptr %52, ptr %5, align 8
  %53 = load ptr, ptr %2, align 8
  %54 = getelementptr inbounds nuw %struct.AppendState, ptr %53, i32 0, i32 0
  %55 = getelementptr inbounds nuw %struct.PlanState, ptr %54, i32 0, i32 13
  %56 = load ptr, ptr %55, align 8
  %57 = icmp ne ptr %56, null
  br i1 %57, label %58, label %64

58:                                               ; preds = %45
  %59 = load ptr, ptr %5, align 8
  %60 = load ptr, ptr %2, align 8
  %61 = getelementptr inbounds nuw %struct.AppendState, ptr %60, i32 0, i32 0
  %62 = getelementptr inbounds nuw %struct.PlanState, ptr %61, i32 0, i32 13
  %63 = load ptr, ptr %62, align 8
  call void @UpdateChangedParamSet(ptr noundef %59, ptr noundef %63)
  br label %64

64:                                               ; preds = %58, %45
  %65 = load ptr, ptr %5, align 8
  %66 = getelementptr inbounds nuw %struct.PlanState, ptr %65, i32 0, i32 13
  %67 = load ptr, ptr %66, align 8
  %68 = icmp eq ptr %67, null
  br i1 %68, label %69, label %71

69:                                               ; preds = %64
  %70 = load ptr, ptr %5, align 8
  call void @ExecReScan(ptr noundef %70)
  br label %71

71:                                               ; preds = %69, %64
  call void @llvm.lifetime.end.p0(i64 8, ptr %5) #6
  br label %72

72:                                               ; preds = %71
  %73 = load i32, ptr %4, align 4
  %74 = add i32 %73, 1
  store i32 %74, ptr %4, align 4
  br label %39, !llvm.loop !10

75:                                               ; preds = %39
  %76 = load i32, ptr %3, align 4
  %77 = icmp sgt i32 %76, 0
  br i1 %77, label %78, label %110

78:                                               ; preds = %75
  store i32 -1, ptr %4, align 4
  br label %79

79:                                               ; preds = %86, %78
  %80 = load ptr, ptr %2, align 8
  %81 = getelementptr inbounds nuw %struct.AppendState, ptr %80, i32 0, i32 5
  %82 = load ptr, ptr %81, align 8
  %83 = load i32, ptr %4, align 4
  %84 = call i32 @bms_next_member(ptr noundef %82, i32 noundef %83)
  store i32 %84, ptr %4, align 4
  %85 = icmp sge i32 %84, 0
  br i1 %85, label %86, label %100

86:                                               ; preds = %79
  call void @llvm.lifetime.start.p0(i64 8, ptr %6) #6
  %87 = load ptr, ptr %2, align 8
  %88 = getelementptr inbounds nuw %struct.AppendState, ptr %87, i32 0, i32 7
  %89 = load ptr, ptr %88, align 8
  %90 = load i32, ptr %4, align 4
  %91 = sext i32 %90 to i64
  %92 = getelementptr inbounds ptr, ptr %89, i64 %91
  %93 = load ptr, ptr %92, align 8
  store ptr %93, ptr %6, align 8
  %94 = load ptr, ptr %6, align 8
  %95 = getelementptr inbounds nuw %struct.AsyncRequest, ptr %94, i32 0, i32 3
  store i8 0, ptr %95, align 4
  %96 = load ptr, ptr %6, align 8
  %97 = getelementptr inbounds nuw %struct.AsyncRequest, ptr %96, i32 0, i32 4
  store i8 0, ptr %97, align 1
  %98 = load ptr, ptr %6, align 8
  %99 = getelementptr inbounds nuw %struct.AsyncRequest, ptr %98, i32 0, i32 5
  store ptr null, ptr %99, align 8
  call void @llvm.lifetime.end.p0(i64 8, ptr %6) #6
  br label %79, !llvm.loop !11

100:                                              ; preds = %79
  %101 = load ptr, ptr %2, align 8
  %102 = getelementptr inbounds nuw %struct.AppendState, ptr %101, i32 0, i32 9
  store i32 0, ptr %102, align 8
  %103 = load ptr, ptr %2, align 8
  %104 = getelementptr inbounds nuw %struct.AppendState, ptr %103, i32 0, i32 11
  store i32 0, ptr %104, align 8
  %105 = load ptr, ptr %2, align 8
  %106 = getelementptr inbounds nuw %struct.AppendState, ptr %105, i32 0, i32 12
  %107 = load ptr, ptr %106, align 8
  call void @bms_free(ptr noundef %107)
  %108 = load ptr, ptr %2, align 8
  %109 = getelementptr inbounds nuw %struct.AppendState, ptr %108, i32 0, i32 12
  store ptr null, ptr %109, align 8
  br label %110

110:                                              ; preds = %100, %75
  %111 = load ptr, ptr %2, align 8
  %112 = getelementptr inbounds nuw %struct.AppendState, ptr %111, i32 0, i32 3
  store i32 -1, ptr %112, align 4
  %113 = load ptr, ptr %2, align 8
  %114 = getelementptr inbounds nuw %struct.AppendState, ptr %113, i32 0, i32 10
  store i8 0, ptr %114, align 4
  %115 = load ptr, ptr %2, align 8
  %116 = getelementptr inbounds nuw %struct.AppendState, ptr %115, i32 0, i32 4
  store i8 0, ptr %116, align 8
  call void @llvm.lifetime.end.p0(i64 4, ptr %4) #6
  call void @llvm.lifetime.end.p0(i64 4, ptr %3) #6
  ret void
}