; Function Attrs: nounwind uwtable
define dso_local void @ExecReScanAppend(ptr noundef captures(none) %0) local_unnamed_addr #0 {
  %2 = getelementptr inbounds nuw i8, ptr %0, i64 232
  %3 = load i32, ptr %2, align 8
  %4 = getelementptr inbounds nuw i8, ptr %0, i64 312
  %5 = load ptr, ptr %4, align 8
  %.not = icmp eq ptr %5, null
  br i1 %.not, label %18, label %6

6:                                                ; preds = %1
  %7 = getelementptr inbounds nuw i8, ptr %0, i64 104
  %8 = load ptr, ptr %7, align 8
  %9 = getelementptr inbounds nuw i8, ptr %5, i64 8
  %10 = load ptr, ptr %9, align 8
  %11 = tail call zeroext i1 @bms_overlap(ptr noundef %8, ptr noundef %10) #6
  br i1 %11, label %12, label %18

12:                                               ; preds = %6
  %13 = getelementptr inbounds nuw i8, ptr %0, i64 320
  store i8 0, ptr %13, align 8
  %14 = getelementptr inbounds nuw i8, ptr %0, i64 328
  %15 = load ptr, ptr %14, align 8
  tail call void @bms_free(ptr noundef %15) #6
  store ptr null, ptr %14, align 8
  %16 = getelementptr inbounds nuw i8, ptr %0, i64 336
  %17 = load ptr, ptr %16, align 8
  tail call void @bms_free(ptr noundef %17) #6
  store ptr null, ptr %16, align 8
  br label %18

18:                                               ; preds = %12, %6, %1
  %19 = getelementptr inbounds nuw i8, ptr %0, i64 208
  %20 = load i32, ptr %19, align 8
  %21 = icmp sgt i32 %20, 0
  br i1 %21, label %.lr.ph, label %._crit_edge

.lr.ph:                                           ; preds = %18
  %22 = getelementptr inbounds nuw i8, ptr %0, i64 200
  %23 = getelementptr inbounds nuw i8, ptr %0, i64 104
  br label %24

24:                                               ; preds = %.lr.ph, %35
  %indvars.iv = phi i64 [ 0, %.lr.ph ], [ %indvars.iv.next, %35 ]
  %25 = load ptr, ptr %22, align 8
  %26 = getelementptr inbounds nuw ptr, ptr %25, i64 %indvars.iv
  %27 = load ptr, ptr %26, align 8
  %28 = load ptr, ptr %23, align 8
  %.not36 = icmp eq ptr %28, null
  br i1 %.not36, label %30, label %29

29:                                               ; preds = %24
  tail call void @UpdateChangedParamSet(ptr noundef %27, ptr noundef nonnull %28) #6
  br label %30

30:                                               ; preds = %29, %24
  %31 = getelementptr inbounds nuw i8, ptr %27, i64 104
  %32 = load ptr, ptr %31, align 8
  %33 = icmp eq ptr %32, null
  br i1 %33, label %34, label %35

34:                                               ; preds = %30
  tail call void @ExecReScan(ptr noundef nonnull %27) #6
  br label %35

35:                                               ; preds = %34, %30
  %indvars.iv.next = add nuw nsw i64 %indvars.iv, 1
  %36 = load i32, ptr %19, align 8
  %37 = sext i32 %36 to i64
  %38 = icmp slt i64 %indvars.iv.next, %37
  br i1 %38, label %24, label %._crit_edge, !llvm.loop !14

._crit_edge:                                      ; preds = %35, %18
  %39 = icmp sgt i32 %3, 0
  br i1 %39, label %.preheader, label %61

.preheader:                                       ; preds = %._crit_edge
  %40 = getelementptr inbounds nuw i8, ptr %0, i64 224
  %41 = load ptr, ptr %40, align 8
  %42 = tail call i32 @bms_next_member(ptr noundef %41, i32 noundef -1) #6
  %43 = icmp sgt i32 %42, -1
  br i1 %43, label %.lr.ph38, label %._crit_edge39

.lr.ph38:                                         ; preds = %.preheader
  %44 = getelementptr inbounds nuw i8, ptr %0, i64 240
  br label %45

45:                                               ; preds = %.lr.ph38, %45
  %46 = phi i32 [ %42, %.lr.ph38 ], [ %55, %45 ]
  %47 = load ptr, ptr %44, align 8
  %48 = zext nneg i32 %46 to i64
  %49 = getelementptr inbounds nuw ptr, ptr %47, i64 %48
  %50 = load ptr, ptr %49, align 8
  %51 = getelementptr inbounds nuw i8, ptr %50, i64 20
  store i8 0, ptr %51, align 4
  %52 = getelementptr inbounds nuw i8, ptr %50, i64 21
  store i8 0, ptr %52, align 1
  %53 = getelementptr inbounds nuw i8, ptr %50, i64 24
  store ptr null, ptr %53, align 8
  %54 = load ptr, ptr %40, align 8
  %55 = tail call i32 @bms_next_member(ptr noundef %54, i32 noundef %46) #6
  %56 = icmp sgt i32 %55, -1
  br i1 %56, label %45, label %._crit_edge39, !llvm.loop !15

._crit_edge39:                                    ; preds = %45, %.preheader
  %57 = getelementptr inbounds nuw i8, ptr %0, i64 256
  store i32 0, ptr %57, align 8
  %58 = getelementptr inbounds nuw i8, ptr %0, i64 264
  store i32 0, ptr %58, align 8
  %59 = getelementptr inbounds nuw i8, ptr %0, i64 272
  %60 = load ptr, ptr %59, align 8
  tail call void @bms_free(ptr noundef %60) #6
  store ptr null, ptr %59, align 8
  br label %61

61:                                               ; preds = %._crit_edge39, %._crit_edge
  %62 = getelementptr inbounds nuw i8, ptr %0, i64 212
  store i32 -1, ptr %62, align 4
  %63 = getelementptr inbounds nuw i8, ptr %0, i64 260
  store i8 0, ptr %63, align 4
  %64 = getelementptr inbounds nuw i8, ptr %0, i64 216
  store i8 0, ptr %64, align 8
  ret void
}